; Function Attrs: nounwind uwtable
define internal range(i32 -2147483648, 1) i32 @query_formats(ptr noundef %0, ptr noundef %1, ptr noundef %2) #1 {
  %4 = tail call i32 @ff_set_common_formats_from_list2(ptr noundef %0, ptr noundef %1, ptr noundef %2, ptr noundef nonnull @query_formats.formats) #7
  %5 = icmp slt i32 %4, 0
  br i1 %5, label %11, label %6

6:                                                ; preds = %3
  %7 = tail call i32 @ff_set_common_samplerates_from_list2(ptr noundef %0, ptr noundef %1, ptr noundef %2, ptr noundef nonnull @query_formats.sample_rates) #7
  %8 = icmp slt i32 %7, 0
  br i1 %8, label %11, label %9

9:                                                ; preds = %6
  %10 = tail call i32 @ff_set_common_channel_layouts_from_list2(ptr noundef %0, ptr noundef %1, ptr noundef %2, ptr noundef nonnull @query_formats.layouts) #7
  %. = tail call i32 @llvm.smin.i32(i32 %10, i32 0)
  br label %11

11:                                               ; preds = %9, %6, %3
  %.0 = phi i32 [ %4, %3 ], [ %7, %6 ], [ %., %9 ]
  ret i32 %.0
}